target datalayout = "e-m:e-p270:32:32-p271:32:32-p272:64:64-i64:64-i128:128-f80:128-n8:16:32:64-S128"
target triple = "x86_64-pc-linux-gnu"

%struct.lxb_dom_document = type { %struct.lxb_dom_node, i32, i32, ptr, ptr, ptr, ptr, ptr, ptr, ptr, ptr, ptr, ptr, ptr, ptr, ptr, ptr, ptr, ptr, ptr, i8, i8, i8 }
%struct.lxb_dom_node = type { %struct.lxb_dom_event_target, i64, i64, i64, ptr, ptr, ptr, ptr, ptr, ptr, ptr, i32, i64 }
%struct.lxb_dom_event_target = type { ptr }
%struct.lxb_dom_attr = type { %struct.lxb_dom_node, i64, i64, ptr, ptr, ptr, ptr }
%struct.lxb_dom_attr_data_t = type { %struct.lexbor_hash_entry, i64, i64, i8 }
%struct.lexbor_hash_entry = type { %union.anon, i64, ptr }
%union.anon = type { ptr, [16 x i8] }

@.str = private unnamed_addr constant [14 x i8] c"definitionurl\00", align 1
@.str.1 = private unnamed_addr constant [14 x i8] c"definitionURL\00", align 1

; Function Attrs: nounwind uwtable
define internal ptr @lexbor_hash_entry_str(ptr noundef %0) #0 {
  %2 = alloca ptr, align 8
  %3 = alloca ptr, align 8
  store ptr %0, ptr %3, align 8
  %4 = load ptr, ptr %3, align 8
  %5 = getelementptr inbounds %struct.lexbor_hash_entry, ptr %4, i32 0, i32 1
  %6 = load i64, ptr %5, align 8
  %7 = icmp ule i64 %6, 16
  br i1 %7, label %8, label %12

8:                                                ; preds = %1
  %9 = load ptr, ptr %3, align 8
  %10 = getelementptr inbounds %struct.lexbor_hash_entry, ptr %9, i32 0, i32 0
  %11 = getelementptr inbounds [17 x i8], ptr %10, i64 0, i64 0
  store ptr %11, ptr %2, align 8
  br label %16

12:                                               ; preds = %1
  %13 = load ptr, ptr %3, align 8
  %14 = getelementptr inbounds %struct.lexbor_hash_entry, ptr %13, i32 0, i32 0
  %15 = load ptr, ptr %14, align 8
  store ptr %15, ptr %2, align 8
  br label %16

16:                                               ; preds = %12, %8
  %17 = load ptr, ptr %2, align 8
  ret ptr %17
}

; Function Attrs: nounwind uwtable
define hidden i32 @lxb_html_tree_adjust_mathml_attributes(ptr noundef %0, ptr noundef %1, ptr noundef %2) #0 {
  %4 = alloca i32, align 4
  %5 = alloca ptr, align 8
  %6 = alloca ptr, align 8
  %7 = alloca ptr, align 8
  %8 = alloca ptr, align 8
  %9 = alloca ptr, align 8
  store ptr %0, ptr %5, align 8
  store ptr %1, ptr %6, align 8
  store ptr %2, ptr %7, align 8
  %10 = load ptr, ptr %6, align 8
  %11 = getelementptr inbounds %struct.lxb_dom_attr, ptr %10, i32 0, i32 0
  %12 = getelementptr inbounds %struct.lxb_dom_node, ptr %11, i32 0, i32 4
  %13 = load ptr, ptr %12, align 8
  %14 = getelementptr inbounds %struct.lxb_dom_document, ptr %13, i32 0, i32 15
  %15 = load ptr, ptr %14, align 8
  store ptr %15, ptr %8, align 8
  %16 = load ptr, ptr %8, align 8
  %17 = load ptr, ptr %6, align 8
  %18 = getelementptr inbounds %struct.lxb_dom_attr, ptr %17, i32 0, i32 0
  %19 = getelementptr inbounds %struct.lxb_dom_node, ptr %18, i32 0, i32 1
  %20 = load i64, ptr %19, align 8
  %21 = call ptr @lxb_dom_attr_data_by_id(ptr noundef %16, i64 noundef %20)
  store ptr %21, ptr %9, align 8
  %22 = load ptr, ptr %9, align 8
  %23 = getelementptr inbounds %struct.lxb_dom_attr_data_t, ptr %22, i32 0, i32 0
  %24 = getelementptr inbounds %struct.lexbor_hash_entry, ptr %23, i32 0, i32 1
  %25 = load i64, ptr %24, align 8
  %26 = icmp eq i64 %25, 13
  br i1 %26, label %27, label %44

27:                                               ; preds = %3
  %28 = load ptr, ptr %9, align 8
  %29 = getelementptr inbounds %struct.lxb_dom_attr_data_t, ptr %28, i32 0, i32 0
  %30 = call ptr @lexbor_hash_entry_str(ptr noundef %29)
  %31 = call zeroext i1 @lexbor_str_data_cmp(ptr noundef %30, ptr noundef @.str)
  br i1 %31, label %32, label %44

32:                                               ; preds = %27
  %33 = load ptr, ptr %8, align 8
  %34 = call ptr @lxb_dom_attr_qualified_name_append(ptr noundef %33, ptr noundef @.str.1, i64 noundef 13)
  store ptr %34, ptr %9, align 8
  %35 = load ptr, ptr %9, align 8
  %36 = icmp eq ptr %35, null
  br i1 %36, label %37, label %38

37:                                               ; preds = %32
  store i32 1, ptr %4, align 4
  br label %45

38:                                               ; preds = %32
  %39 = load ptr, ptr %9, align 8
  %40 = getelementptr inbounds %struct.lxb_dom_attr_data_t, ptr %39, i32 0, i32 1
  %41 = load i64, ptr %40, align 8
  %42 = load ptr, ptr %6, align 8
  %43 = getelementptr inbounds %struct.lxb_dom_attr, ptr %42, i32 0, i32 2
  store i64 %41, ptr %43, align 8
  br label %44

44:                                               ; preds = %38, %27, %3
  store i32 0, ptr %4, align 4
  br label %45

45:                                               ; preds = %44, %37
  %46 = load i32, ptr %4, align 4
  ret i32 %46
}

; Function Attrs: nounwind uwtable
define hidden i32 @lxb_html_tree_adjust_attributes_mathml(ptr noundef %0, ptr noundef %1, ptr noundef %2) #0 {
  %4 = alloca i32, align 4
  %5 = alloca ptr, align 8
  %6 = alloca ptr, align 8
  %7 = alloca ptr, align 8
  %8 = alloca i32, align 4
  store ptr %0, ptr %5, align 8
  store ptr %1, ptr %6, align 8
  store ptr %2, ptr %7, align 8
  %9 = load ptr, ptr %5, align 8
  %10 = load ptr, ptr %6, align 8
  %11 = load ptr, ptr %7, align 8
  %12 = call i32 @lxb_html_tree_adjust_mathml_attributes(ptr noundef %9, ptr noundef %10, ptr noundef %11)
  store i32 %12, ptr %8, align 4
  %13 = load i32, ptr %8, align 4
  %14 = icmp ne i32 %13, 0
  br i1 %14, label %15, label %17

15:                                               ; preds = %3
  %16 = load i32, ptr %8, align 4
  store i32 %16, ptr %4, align 4
  br label %22

17:                                               ; preds = %3
  %18 = load ptr, ptr %5, align 8
  %19 = load ptr, ptr %6, align 8
  %20 = load ptr, ptr %7, align 8
  %21 = call i32 @lxb_html_tree_adjust_foreign_attributes(ptr noundef %18, ptr noundef %19, ptr noundef %20)
  store i32 %21, ptr %4, align 4
  br label %22

22:                                               ; preds = %17, %15
  %23 = load i32, ptr %4, align 4
  ret i32 %23
}